; Function Attrs: nounwind uwtable
define internal void @rel_sync_cache_publication_cb(i64 %0, i32 %1, i32 %2) #2 {
  %4 = alloca %struct.HASH_SEQ_STATUS, align 8
  call void @llvm.lifetime.start.p0(i64 32, ptr nonnull %4) #13
  %5 = load ptr, ptr @RelationSyncCache, align 8
  %6 = icmp eq ptr %5, null
  br i1 %6, label %.loopexit, label %7

7:                                                ; preds = %3
  call void @hash_seq_init(ptr noundef nonnull %4, ptr noundef nonnull %5) #13
  %8 = call ptr @hash_seq_search(ptr noundef nonnull %4) #13
  %.not2 = icmp eq ptr %8, null
  br i1 %.not2, label %.loopexit, label %.lr.ph

.lr.ph:                                           ; preds = %7, %.lr.ph
  %9 = phi ptr [ %11, %.lr.ph ], [ %8, %7 ]
  %10 = getelementptr inbounds nuw i8, ptr %9, i64 4
  store i8 0, ptr %10, align 4
  %11 = call ptr @hash_seq_search(ptr noundef nonnull %4) #13
  %.not = icmp eq ptr %11, null
  br i1 %.not, label %.loopexit, label %.lr.ph, !llvm.loop !9

.loopexit:                                        ; preds = %.lr.ph, %7, %3
  call void @llvm.lifetime.end.p0(i64 32, ptr nonnull %4) #13
  ret void
}